; Function Attrs: mustprogress nofree norecurse nosync nounwind willreturn memory(argmem: readwrite) uwtable
define range(i64 -119, 2147972921) i64 @ZSTD_estimateDStreamSize_fromFrame(ptr noundef captures(address_is_null) %0, i64 noundef %1) local_unnamed_addr #7 {
  %3 = alloca %struct.ZSTD_FrameHeader, align 8
  call void @llvm.lifetime.start.p0(i64 48, ptr nonnull %3) #17
  %4 = call i64 @ZSTD_getFrameHeader_advanced(ptr noundef nonnull %3, ptr noundef %0, i64 noundef %1, i32 noundef 0)
  %5 = icmp ult i64 %4, -119
  br i1 %5, label %6, label %17

6:                                                ; preds = %2
  %.not6 = icmp eq i64 %4, 0
  br i1 %.not6, label %7, label %17

7:                                                ; preds = %6
  %8 = getelementptr inbounds nuw i8, ptr %3, i64 8
  %9 = load i64, ptr %8, align 8, !tbaa !56
  %10 = icmp ugt i64 %9, 2147483648
  br i1 %10, label %17, label %11

11:                                               ; preds = %7
  %12 = tail call i64 @llvm.umin.i64(i64 %9, i64 131072)
  %13 = shl nuw nsw i64 %12, 1
  %14 = add nuw nsw i64 %9, 96056
  %15 = add nuw nsw i64 %14, %12
  %16 = add nuw nsw i64 %15, %13
  br label %17

17:                                               ; preds = %7, %6, %2, %11
  %.0 = phi i64 [ %16, %11 ], [ %4, %2 ], [ -72, %6 ], [ -16, %7 ]
  call void @llvm.lifetime.end.p0(i64 48, ptr nonnull %3) #17
  ret i64 %.0
}